target datalayout = "e-m:e-p270:32:32-p271:32:32-p272:64:64-i64:64-i128:128-f80:128-n8:16:32:64-S128"
target triple = "x86_64-pc-linux-gnu"

%struct.lv_point_t = type { i32, i32 }
%union.lv_style_value_t = type { ptr }

; Function Attrs: inlinehint nounwind uwtable
define internal i32 @lv_obj_get_style_transform_scale_y(ptr noundef %0, i32 noundef %1) #3 {
  %3 = alloca ptr, align 8
  %4 = alloca i32, align 4
  %5 = alloca %union.lv_style_value_t, align 8
  store ptr %0, ptr %3, align 8, !tbaa !8
  store i32 %1, ptr %4, align 4, !tbaa !24
  call void @llvm.lifetime.start.p0(i64 8, ptr %5) #6
  %6 = load ptr, ptr %3, align 8, !tbaa !8
  %7 = load i32, ptr %4, align 4, !tbaa !24
  %8 = call ptr @lv_obj_get_style_prop(ptr noundef %6, i32 noundef %7, i8 noundef zeroext 109)
  %9 = getelementptr inbounds nuw %union.lv_style_value_t, ptr %5, i32 0, i32 0
  store ptr %8, ptr %9, align 8
  %10 = load i32, ptr %5, align 8, !tbaa !41
  call void @llvm.lifetime.end.p0(i64 8, ptr %5) #6
  ret i32 %10
}

; Function Attrs: inlinehint nounwind uwtable
define internal i32 @lv_obj_get_style_transform_scale_x(ptr noundef %0, i32 noundef %1) #3 {
  %3 = alloca ptr, align 8
  %4 = alloca i32, align 4
  %5 = alloca %union.lv_style_value_t, align 8
  store ptr %0, ptr %3, align 8, !tbaa !8
  store i32 %1, ptr %4, align 4, !tbaa !24
  call void @llvm.lifetime.start.p0(i64 8, ptr %5) #6
  %6 = load ptr, ptr %3, align 8, !tbaa !8
  %7 = load i32, ptr %4, align 4, !tbaa !24
  %8 = call ptr @lv_obj_get_style_prop(ptr noundef %6, i32 noundef %7, i8 noundef zeroext 108)
  %9 = getelementptr inbounds nuw %union.lv_style_value_t, ptr %5, i32 0, i32 0
  store ptr %8, ptr %9, align 8
  %10 = load i32, ptr %5, align 8, !tbaa !41
  call void @llvm.lifetime.end.p0(i64 8, ptr %5) #6
  ret i32 %10
}

; Function Attrs: inlinehint nounwind uwtable
define internal i32 @lv_obj_get_style_transform_scale_y_safe(ptr noundef %0, i32 noundef %1) #3 {
  %3 = alloca ptr, align 8
  %4 = alloca i32, align 4
  %5 = alloca i32, align 4
  store ptr %0, ptr %3, align 8, !tbaa !8
  store i32 %1, ptr %4, align 4, !tbaa !24
  call void @llvm.lifetime.start.p0(i64 4, ptr %5) #6
  %6 = load ptr, ptr %3, align 8, !tbaa !8
  %7 = load i32, ptr %4, align 4, !tbaa !24
  %8 = call i32 @lv_obj_get_style_transform_scale_y(ptr noundef %6, i32 noundef %7)
  store i32 %8, ptr %5, align 4, !tbaa !24
  %9 = load i32, ptr %5, align 4, !tbaa !24
  %10 = icmp sgt i32 %9, 0
  br i1 %10, label %11, label %13

11:                                               ; preds = %2
  %12 = load i32, ptr %5, align 4, !tbaa !24
  br label %14

13:                                               ; preds = %2
  br label %14

14:                                               ; preds = %13, %11
  %15 = phi i32 [ %12, %11 ], [ 1, %13 ]
  call void @llvm.lifetime.end.p0(i64 4, ptr %5) #6
  ret i32 %15
}

; Function Attrs: inlinehint nounwind uwtable
define internal i32 @lv_obj_get_style_transform_scale_x_safe(ptr noundef %0, i32 noundef %1) #3 {
  %3 = alloca ptr, align 8
  %4 = alloca i32, align 4
  %5 = alloca i32, align 4
  store ptr %0, ptr %3, align 8, !tbaa !8
  store i32 %1, ptr %4, align 4, !tbaa !24
  call void @llvm.lifetime.start.p0(i64 4, ptr %5) #6
  %6 = load ptr, ptr %3, align 8, !tbaa !8
  %7 = load i32, ptr %4, align 4, !tbaa !24
  %8 = call i32 @lv_obj_get_style_transform_scale_x(ptr noundef %6, i32 noundef %7)
  store i32 %8, ptr %5, align 4, !tbaa !24
  %9 = load i32, ptr %5, align 4, !tbaa !24
  %10 = icmp sgt i32 %9, 0
  br i1 %10, label %11, label %13

11:                                               ; preds = %2
  %12 = load i32, ptr %5, align 4, !tbaa !24
  br label %14

13:                                               ; preds = %2
  br label %14

14:                                               ; preds = %13, %11
  %15 = phi i32 [ %12, %11 ], [ 1, %13 ]
  call void @llvm.lifetime.end.p0(i64 4, ptr %5) #6
  ret i32 %15
}

; Function Attrs: inlinehint nounwind uwtable
define internal i32 @lv_obj_get_style_transform_rotation(ptr noundef %0, i32 noundef %1) #3 {
  %3 = alloca ptr, align 8
  %4 = alloca i32, align 4
  %5 = alloca %union.lv_style_value_t, align 8
  store ptr %0, ptr %3, align 8, !tbaa !8
  store i32 %1, ptr %4, align 4, !tbaa !24
  call void @llvm.lifetime.start.p0(i64 8, ptr %5) #6
  %6 = load ptr, ptr %3, align 8, !tbaa !8
  %7 = load i32, ptr %4, align 4, !tbaa !24
  %8 = call ptr @lv_obj_get_style_prop(ptr noundef %6, i32 noundef %7, i8 noundef zeroext 110)
  %9 = getelementptr inbounds nuw %union.lv_style_value_t, ptr %5, i32 0, i32 0
  store ptr %8, ptr %9, align 8
  %10 = load i32, ptr %5, align 8, !tbaa !41
  call void @llvm.lifetime.end.p0(i64 8, ptr %5) #6
  ret i32 %10
}

; Function Attrs: nounwind uwtable
define internal void @transform_vect_recursive(ptr noundef %0, ptr noundef %1) #0 {
  %3 = alloca ptr, align 8
  %4 = alloca ptr, align 8
  %5 = alloca i16, align 2
  %6 = alloca i32, align 4
  %7 = alloca i32, align 4
  %8 = alloca ptr, align 8
  %9 = alloca i32, align 4
  %10 = alloca i32, align 4
  %11 = alloca %struct.lv_point_t, align 4
  store ptr %0, ptr %3, align 8, !tbaa !8
  store ptr %1, ptr %4, align 8, !tbaa !25
  call void @llvm.lifetime.start.p0(i64 2, ptr %5) #6
  store i16 0, ptr %5, align 2, !tbaa !53
  call void @llvm.lifetime.start.p0(i64 4, ptr %6) #6
  store i32 256, ptr %6, align 4, !tbaa !24
  call void @llvm.lifetime.start.p0(i64 4, ptr %7) #6
  store i32 256, ptr %7, align 4, !tbaa !24
  call void @llvm.lifetime.start.p0(i64 8, ptr %8) #6
  %12 = load ptr, ptr %3, align 8, !tbaa !8
  store ptr %12, ptr %8, align 8, !tbaa !8
  br label %13

13:                                               ; preds = %16, %2
  %14 = load ptr, ptr %8, align 8, !tbaa !8
  %15 = icmp ne ptr %14, null
  br i1 %15, label %16, label %37

16:                                               ; preds = %13
  %17 = load ptr, ptr %8, align 8, !tbaa !8
  %18 = call i32 @lv_obj_get_style_transform_rotation(ptr noundef %17, i32 noundef 0)
  %19 = load i16, ptr %5, align 2, !tbaa !53
  %20 = sext i16 %19 to i32
  %21 = add nsw i32 %20, %18
  %22 = trunc i32 %21 to i16
  store i16 %22, ptr %5, align 2, !tbaa !53
  call void @llvm.lifetime.start.p0(i64 4, ptr %9) #6
  %23 = load ptr, ptr %8, align 8, !tbaa !8
  %24 = call i32 @lv_obj_get_style_transform_scale_x_safe(ptr noundef %23, i32 noundef 0)
  store i32 %24, ptr %9, align 4, !tbaa !24
  call void @llvm.lifetime.start.p0(i64 4, ptr %10) #6
  %25 = load ptr, ptr %8, align 8, !tbaa !8
  %26 = call i32 @lv_obj_get_style_transform_scale_y_safe(ptr noundef %25, i32 noundef 0)
  store i32 %26, ptr %10, align 4, !tbaa !24
  %27 = load i32, ptr %6, align 4, !tbaa !24
  %28 = load i32, ptr %9, align 4, !tbaa !24
  %29 = mul nsw i32 %27, %28
  %30 = ashr i32 %29, 8
  store i32 %30, ptr %6, align 4, !tbaa !24
  %31 = load i32, ptr %7, align 4, !tbaa !24
  %32 = load i32, ptr %10, align 4, !tbaa !24
  %33 = mul nsw i32 %31, %32
  %34 = ashr i32 %33, 8
  store i32 %34, ptr %7, align 4, !tbaa !24
  %35 = load ptr, ptr %8, align 8, !tbaa !8
  %36 = call ptr @lv_obj_get_parent(ptr noundef %35)
  store ptr %36, ptr %8, align 8, !tbaa !8
  call void @llvm.lifetime.end.p0(i64 4, ptr %10) #6
  call void @llvm.lifetime.end.p0(i64 4, ptr %9) #6
  br label %13, !llvm.loop !54

37:                                               ; preds = %13
  call void @llvm.lifetime.start.p0(i64 8, ptr %11) #6
  call void @llvm.memset.p0.i64(ptr align 4 %11, i8 0, i64 8, i1 false)
  %38 = load i32, ptr %6, align 4, !tbaa !24
  %39 = icmp eq i32 %38, 0
  br i1 %39, label %40, label %41

40:                                               ; preds = %37
  store i32 1, ptr %6, align 4, !tbaa !24
  br label %41

41:                                               ; preds = %40, %37
  %42 = load i32, ptr %7, align 4, !tbaa !24
  %43 = icmp eq i32 %42, 0
  br i1 %43, label %44, label %45

44:                                               ; preds = %41
  store i32 1, ptr %7, align 4, !tbaa !24
  br label %45

45:                                               ; preds = %44, %41
  %46 = load i32, ptr %6, align 4, !tbaa !24
  %47 = sdiv i32 65536, %46
  store i32 %47, ptr %6, align 4, !tbaa !24
  %48 = load i32, ptr %7, align 4, !tbaa !24
  %49 = sdiv i32 65536, %48
  store i32 %49, ptr %7, align 4, !tbaa !24
  %50 = load ptr, ptr %4, align 8, !tbaa !25
  %51 = load i16, ptr %5, align 2, !tbaa !53
  %52 = sext i16 %51 to i32
  %53 = sub nsw i32 0, %52
  %54 = load i32, ptr %6, align 4, !tbaa !24
  %55 = load i32, ptr %7, align 4, !tbaa !24
  call void @lv_point_transform(ptr noundef %50, i32 noundef %53, i32 noundef %54, i32 noundef %55, ptr noundef %11, i1 noundef zeroext false)
  call void @llvm.lifetime.end.p0(i64 8, ptr %11) #6
  call void @llvm.lifetime.end.p0(i64 8, ptr %8) #6
  call void @llvm.lifetime.end.p0(i64 4, ptr %7) #6
  call void @llvm.lifetime.end.p0(i64 4, ptr %6) #6
  call void @llvm.lifetime.end.p0(i64 2, ptr %5) #6
  ret void
}