; Function Attrs: nounwind uwtable
define internal fastcc void @transform_vect_recursive(ptr noundef %0, ptr noundef nonnull %1) unnamed_addr #0 {
  %3 = alloca %struct.lv_point_t, align 8
  %.not23 = icmp eq ptr %0, null
  br i1 %.not23, label %._crit_edge, label %.lr.ph

.lr.ph:                                           ; preds = %2, %.lr.ph
  %.027 = phi i16 [ %7, %.lr.ph ], [ 0, %2 ]
  %.01926 = phi i32 [ %15, %.lr.ph ], [ 256, %2 ]
  %.02025 = phi ptr [ %18, %.lr.ph ], [ %0, %2 ]
  %.02124 = phi i32 [ %17, %.lr.ph ], [ 256, %2 ]
  %4 = tail call ptr @lv_obj_get_style_prop(ptr noundef nonnull %.02025, i32 noundef 0, i8 noundef zeroext 110) #6
  %5 = ptrtoint ptr %4 to i64
  %6 = trunc i64 %5 to i16
  %7 = add i16 %.027, %6
  %8 = tail call ptr @lv_obj_get_style_prop(ptr noundef nonnull %.02025, i32 noundef 0, i8 noundef zeroext 108) #6
  %9 = ptrtoint ptr %8 to i64
  %.sroa.0.0.extract.trunc.i.i = trunc i64 %9 to i32
  %10 = tail call range(i32 1, -2147483648) i32 @llvm.smax.i32(i32 %.sroa.0.0.extract.trunc.i.i, i32 1)
  %11 = tail call ptr @lv_obj_get_style_prop(ptr noundef nonnull %.02025, i32 noundef 0, i8 noundef zeroext 109) #6
  %12 = ptrtoint ptr %11 to i64
  %.sroa.0.0.extract.trunc.i.i22 = trunc i64 %12 to i32
  %13 = tail call range(i32 1, -2147483648) i32 @llvm.smax.i32(i32 %.sroa.0.0.extract.trunc.i.i22, i32 1)
  %14 = mul nuw nsw i32 %10, %.01926
  %15 = lshr i32 %14, 8
  %16 = mul nuw nsw i32 %13, %.02124
  %17 = lshr i32 %16, 8
  %18 = tail call ptr @lv_obj_get_parent(ptr noundef nonnull %.02025) #6
  %.not = icmp eq ptr %18, null
  br i1 %.not, label %._crit_edge.loopexit, label %.lr.ph, !llvm.loop !63

._crit_edge.loopexit:                             ; preds = %.lr.ph
  %19 = sext i16 %7 to i32
  br label %._crit_edge

._crit_edge:                                      ; preds = %._crit_edge.loopexit, %2
  %.021.lcssa = phi i32 [ 256, %2 ], [ %17, %._crit_edge.loopexit ]
  %.019.lcssa = phi i32 [ 256, %2 ], [ %15, %._crit_edge.loopexit ]
  %.0.lcssa = phi i32 [ 0, %2 ], [ %19, %._crit_edge.loopexit ]
  call void @llvm.lifetime.start.p0(i64 8, ptr nonnull %3) #6
  store i64 0, ptr %3, align 8
  %spec.store.select = tail call i32 @llvm.umax.i32(i32 %.019.lcssa, i32 1)
  %spec.store.select1 = tail call i32 @llvm.umax.i32(i32 %.021.lcssa, i32 1)
  %20 = udiv i32 65536, %spec.store.select
  %21 = udiv i32 65536, %spec.store.select1
  %22 = sub nsw i32 0, %.0.lcssa
  call void @lv_point_transform(ptr noundef nonnull %1, i32 noundef %22, i32 noundef %20, i32 noundef %21, ptr noundef nonnull %3, i1 noundef zeroext false) #6
  call void @llvm.lifetime.end.p0(i64 8, ptr nonnull %3) #6
  ret void
}